; ModuleID = '44/1166.c'
source_filename = "44/1166.c"
target datalayout = "e-m:e-p270:32:32-p271:32:32-p272:64:64-i64:64-f80:128-n8:16:32:64-S128"
target triple = "x86_64-pc-linux-gnu"

@.str = private unnamed_addr constant [3 x i8] c"%d\00", align 1
@.str.1 = private unnamed_addr constant [4 x i8] c"%d\0A\00", align 1

; Function Attrs: noinline nounwind uwtable
define dso_local i32 @main(i32 %0, i8** %1) #0 {
  %3 = alloca i32, align 4
  %4 = alloca i32, align 4
  %5 = alloca i8**, align 8
  %6 = alloca [6 x i32], align 16
  %7 = alloca [6 x i32], align 16
  %8 = alloca i32, align 4
  store i32 0, i32* %3, align 4
  store i32 %0, i32* %4, align 4
  store i8** %1, i8*** %5, align 8
  store i32 0, i32* %8, align 4
  br label %9

9:                                                ; preds = %53, %2
  %10 = load i32, i32* %8, align 4
  %11 = icmp slt i32 %10, 6
  br i1 %11, label %12, label %56

12:                                               ; preds = %9
  %13 = load i32, i32* %8, align 4
  %14 = sext i32 %13 to i64
  %15 = getelementptr inbounds [6 x i32], [6 x i32]* %6, i64 0, i64 %14
  %16 = call i32 (i8*, ...) @__isoc99_scanf(i8* getelementptr inbounds ([3 x i8], [3 x i8]* @.str, i64 0, i64 0), i32* %15)
  %17 = load i32, i32* %8, align 4
  %18 = sext i32 %17 to i64
  %19 = getelementptr inbounds [6 x i32], [6 x i32]* %6, i64 0, i64 %18
  %20 = load i32, i32* %19, align 4
  %21 = icmp sge i32 %20, 0
  br i1 %21, label %22, label %36

22:                                               ; preds = %12
  %23 = load i32, i32* %8, align 4
  %24 = sext i32 %23 to i64
  %25 = getelementptr inbounds [6 x i32], [6 x i32]* %6, i64 0, i64 %24
  %26 = load i32, i32* %25, align 4
  %27 = call i32 @reverse(i32 %26)
  %28 = load i32, i32* %8, align 4
  %29 = sext i32 %28 to i64
  %30 = getelementptr inbounds [6 x i32], [6 x i32]* %7, i64 0, i64 %29
  store i32 %27, i32* %30, align 4
  %31 = load i32, i32* %8, align 4
  %32 = sext i32 %31 to i64
  %33 = getelementptr inbounds [6 x i32], [6 x i32]* %7, i64 0, i64 %32
  %34 = load i32, i32* %33, align 4
  %35 = call i32 (i8*, ...) @printf(i8* getelementptr inbounds ([4 x i8], [4 x i8]* @.str.1, i64 0, i64 0), i32 %34)
  br label %52

36:                                               ; preds = %12
  %37 = load i32, i32* %8, align 4
  %38 = sext i32 %37 to i64
  %39 = getelementptr inbounds [6 x i32], [6 x i32]* %6, i64 0, i64 %38
  %40 = load i32, i32* %39, align 4
  %41 = sub nsw i32 0, %40
  %42 = call i32 @reverse(i32 %41)
  %43 = load i32, i32* %8, align 4
  %44 = sext i32 %43 to i64
  %45 = getelementptr inbounds [6 x i32], [6 x i32]* %7, i64 0, i64 %44
  store i32 %42, i32* %45, align 4
  %46 = load i32, i32* %8, align 4
  %47 = sext i32 %46 to i64
  %48 = getelementptr inbounds [6 x i32], [6 x i32]* %7, i64 0, i64 %47
  %49 = load i32, i32* %48, align 4
  %50 = sub nsw i32 0, %49
  %51 = call i32 (i8*, ...) @printf(i8* getelementptr inbounds ([4 x i8], [4 x i8]* @.str.1, i64 0, i64 0), i32 %50)
  br label %52

52:                                               ; preds = %36, %22
  br label %53

53:                                               ; preds = %52
  %54 = load i32, i32* %8, align 4
  %55 = add nsw i32 %54, 1
  store i32 %55, i32* %8, align 4
  br label %9

56:                                               ; preds = %9
  ret i32 0
}

declare dso_local i32 @__isoc99_scanf(i8*, ...) #1

; Function Attrs: noinline nounwind uwtable
define dso_local i32 @reverse(i32 %0) #0 {
  %2 = alloca i32, align 4
  %3 = alloca i32, align 4
  %4 = alloca i32, align 4
  %5 = alloca i32, align 4
  %6 = alloca i32, align 4
  %7 = alloca i32, align 4
  %8 = alloca i32, align 4
  %9 = alloca i32, align 4
  %10 = alloca double, align 8
  store i32 %0, i32* %2, align 4
  store i32 0, i32* %3, align 4
  store i32 0, i32* %5, align 4
  %11 = load i32, i32* %2, align 4
  store i32 %11, i32* %4, align 4
  br label %12

12:                                               ; preds = %15, %1
  %13 = load i32, i32* %4, align 4
  %14 = icmp sge i32 %13, 1
  br i1 %14, label %15, label %20

15:                                               ; preds = %12
  %16 = load i32, i32* %4, align 4
  %17 = sdiv i32 %16, 10
  store i32 %17, i32* %4, align 4
  %18 = load i32, i32* %3, align 4
  %19 = add nsw i32 %18, 1
  store i32 %19, i32* %3, align 4
  br label %12

20:                                               ; preds = %12
  store i32 0, i32* %9, align 4
  %21 = load i32, i32* %3, align 4
  store i32 %21, i32* %6, align 4
  br label %22

22:                                               ; preds = %58, %20
  %23 = load i32, i32* %6, align 4
  %24 = icmp sgt i32 %23, 0
  br i1 %24, label %25, label %61

25:                                               ; preds = %22
  %26 = load i32, i32* %2, align 4
  %27 = load i32, i32* %6, align 4
  %28 = sitofp i32 %27 to double
  %29 = call double @pow(double 1.000000e+01, double %28) #3
  %30 = fptosi double %29 to i32
  %31 = srem i32 %26, %30
  store i32 %31, i32* %7, align 4
  %32 = load i32, i32* %2, align 4
  %33 = load i32, i32* %6, align 4
  %34 = sub nsw i32 %33, 1
  %35 = sitofp i32 %34 to double
  %36 = call double @pow(double 1.000000e+01, double %35) #3
  %37 = fptosi double %36 to i32
  %38 = srem i32 %32, %37
  store i32 %38, i32* %8, align 4
  %39 = load i32, i32* %3, align 4
  %40 = sub nsw i32 1, %39
  %41 = load i32, i32* %9, align 4
  %42 = mul nsw i32 2, %41
  %43 = add nsw i32 %40, %42
  %44 = sitofp i32 %43 to double
  %45 = call double @pow(double 1.000000e+01, double %44) #3
  store double %45, double* %10, align 8
  %46 = load i32, i32* %9, align 4
  %47 = add nsw i32 %46, 1
  store i32 %47, i32* %9, align 4
  %48 = load i32, i32* %7, align 4
  %49 = load i32, i32* %8, align 4
  %50 = sub nsw i32 %48, %49
  %51 = sitofp i32 %50 to double
  %52 = load double, double* %10, align 8
  %53 = fmul double %51, %52
  %54 = load i32, i32* %5, align 4
  %55 = sitofp i32 %54 to double
  %56 = fadd double %55, %53
  %57 = fptosi double %56 to i32
  store i32 %57, i32* %5, align 4
  br label %58

58:                                               ; preds = %25
  %59 = load i32, i32* %6, align 4
  %60 = add nsw i32 %59, -1
  store i32 %60, i32* %6, align 4
  br label %22

61:                                               ; preds = %22
  %62 = load i32, i32* %5, align 4
  ret i32 %62
}

declare dso_local i32 @printf(i8*, ...) #1

; Function Attrs: nounwind
declare dso_local double @pow(double, double) #2


!llvm.module.flags = !{!0}
!llvm.ident = !{!1}

!0 = !{i32 1, !"wchar_size", i32 4}
!1 = !{!"clang version 10.0.0-4ubuntu1 "}
